target datalayout = "e-m:e-p270:32:32-p271:32:32-p272:64:64-i64:64-i128:128-f80:128-n8:16:32:64-S128"
target triple = "x86_64-pc-linux-gnu"

%struct.FT_FaceRec_ = type { i64, i64, i64, i64, i64, ptr, ptr, i32, ptr, i32, ptr, %struct.FT_Generic_, %struct.FT_BBox_, i16, i16, i16, i16, i16, i16, i16, i16, ptr, ptr, ptr, ptr, ptr, ptr, %struct.FT_ListRec_, %struct.FT_Generic_, ptr, ptr }
%struct.FT_BBox_ = type { i64, i64, i64, i64 }
%struct.FT_ListRec_ = type { ptr, ptr }
%struct.FT_Generic_ = type { ptr, ptr }
%struct.TT_FaceRec_ = type { %struct.FT_FaceRec_, %struct.TTC_HeaderRec_, i64, i16, ptr, %struct.TT_Header_, %struct.TT_HoriHeader_, %struct.TT_MaxProfile_, i8, %struct.TT_VertHeader_, i16, %struct.TT_NameTableRec_, %struct.TT_OS2_, %struct.TT_Postscript_, ptr, i64, ptr, ptr, ptr, ptr, ptr, ptr, ptr, ptr, ptr, ptr, ptr, ptr, %struct.TT_Gasp_, %struct.TT_PCLT_, i64, ptr, %struct.TT_Post_NamesRec_, %struct.FT_Palette_Data_, i16, ptr, i8, %struct.FT_Color_, i64, ptr, i64, ptr, i64, ptr, ptr, %struct.FT_Generic_, ptr, i64, i64, i8, i8, ptr, i32, ptr, i32, i32, ptr, i64, i64, i64, ptr, ptr, i64, i32, i64, ptr, ptr, i64, i32, i32, ptr, ptr, i64, i32, i32, i32, %struct.TT_BDFRec_, i64, i64, i64, i64, ptr, ptr, ptr }
%struct.TTC_HeaderRec_ = type { i64, i64, i64, ptr }
%struct.TT_Header_ = type { i64, i64, i64, i64, i16, i16, [2 x i64], [2 x i64], i16, i16, i16, i16, i16, i16, i16, i16, i16 }
%struct.TT_HoriHeader_ = type { i64, i16, i16, i16, i16, i16, i16, i16, i16, i16, i16, [4 x i16], i16, i16, ptr, ptr }
%struct.TT_MaxProfile_ = type { i64, i16, i16, i16, i16, i16, i16, i16, i16, i16, i16, i16, i16, i16, i16 }
%struct.TT_VertHeader_ = type { i64, i16, i16, i16, i16, i16, i16, i16, i16, i16, i16, [4 x i16], i16, i16, ptr, ptr }
%struct.TT_NameTableRec_ = type { i16, i32, i32, ptr, i32, ptr, ptr }
%struct.TT_OS2_ = type { i16, i16, i16, i16, i16, i16, i16, i16, i16, i16, i16, i16, i16, i16, i16, i16, [10 x i8], i64, i64, i64, i64, [4 x i8], i16, i16, i16, i16, i16, i16, i16, i16, i64, i64, i16, i16, i16, i16, i16, i16, i16 }
%struct.TT_Postscript_ = type { i64, i64, i16, i16, i64, i64, i64, i64, i64 }
%struct.TT_Gasp_ = type { i16, i16, ptr }
%struct.TT_PCLT_ = type { i64, i64, i16, i16, i16, i16, i16, i16, [16 x i8], [8 x i8], [6 x i8], i8, i8, i8, i8 }
%struct.TT_Post_NamesRec_ = type { i8, i16, i16, ptr, ptr }
%struct.FT_Palette_Data_ = type { i16, ptr, ptr, i16, ptr }
%struct.FT_Color_ = type { i8, i8, i8, i8 }
%struct.TT_BDFRec_ = type { ptr, ptr, ptr, i64, i32, i8 }
%struct.Colr_ = type { i16, i16, i16, ptr, ptr, i64, ptr, i64, ptr, ptr, ptr, %struct.GX_ItemVarStoreRec_, %struct.GX_DeltaSetIdxMapRec_, ptr, i64 }
%struct.GX_ItemVarStoreRec_ = type { i32, ptr, i16, i32, ptr }
%struct.GX_DeltaSetIdxMapRec_ = type { i64, ptr, ptr }
%struct.BaseGlyphV1Record_ = type { i16, i64 }
%struct.FT_Opaque_Paint_ = type { ptr, i8 }

; Function Attrs: nounwind uwtable
define internal zeroext i8 @find_base_glyph_v1_record(ptr noundef %0, i32 noundef %1, i32 noundef %2, ptr noundef %3) #0 {
  %5 = alloca i8, align 1
  %6 = alloca ptr, align 8
  %7 = alloca i32, align 4
  %8 = alloca i32, align 4
  %9 = alloca ptr, align 8
  %10 = alloca i32, align 4
  %11 = alloca i32, align 4
  %12 = alloca i32, align 4
  %13 = alloca i16, align 2
  %14 = alloca ptr, align 8
  store ptr %0, ptr %6, align 8
  store i32 %1, ptr %7, align 4
  store i32 %2, ptr %8, align 4
  store ptr %3, ptr %9, align 8
  store i32 0, ptr %10, align 4
  %15 = load i32, ptr %7, align 4
  store i32 %15, ptr %11, align 4
  br label %16

16:                                               ; preds = %102, %4
  %17 = load i32, ptr %10, align 4
  %18 = load i32, ptr %11, align 4
  %19 = icmp ult i32 %17, %18
  br i1 %19, label %20, label %103

20:                                               ; preds = %16
  %21 = load i32, ptr %10, align 4
  %22 = load i32, ptr %11, align 4
  %23 = load i32, ptr %10, align 4
  %24 = sub i32 %22, %23
  %25 = udiv i32 %24, 2
  %26 = add i32 %21, %25
  store i32 %26, ptr %12, align 4
  %27 = load ptr, ptr %6, align 8
  %28 = getelementptr inbounds i8, ptr %27, i64 4
  %29 = load i32, ptr %12, align 4
  %30 = mul i32 %29, 6
  %31 = zext i32 %30 to i64
  %32 = getelementptr inbounds i8, ptr %28, i64 %31
  store ptr %32, ptr %14, align 8
  %33 = load ptr, ptr %14, align 8
  %34 = getelementptr inbounds i8, ptr %33, i64 2
  store ptr %34, ptr %14, align 8
  %35 = load ptr, ptr %14, align 8
  %36 = getelementptr inbounds i8, ptr %35, i64 -2
  %37 = getelementptr inbounds i8, ptr %36, i64 0
  %38 = load i8, ptr %37, align 1
  %39 = zext i8 %38 to i16
  %40 = zext i16 %39 to i32
  %41 = shl i32 %40, 8
  %42 = load ptr, ptr %14, align 8
  %43 = getelementptr inbounds i8, ptr %42, i64 -2
  %44 = getelementptr inbounds i8, ptr %43, i64 1
  %45 = load i8, ptr %44, align 1
  %46 = zext i8 %45 to i16
  %47 = zext i16 %46 to i32
  %48 = shl i32 %47, 0
  %49 = or i32 %41, %48
  %50 = trunc i32 %49 to i16
  store i16 %50, ptr %13, align 2
  %51 = load i16, ptr %13, align 2
  %52 = zext i16 %51 to i32
  %53 = load i32, ptr %8, align 4
  %54 = icmp ult i32 %52, %53
  br i1 %54, label %55, label %58

55:                                               ; preds = %20
  %56 = load i32, ptr %12, align 4
  %57 = add i32 %56, 1
  store i32 %57, ptr %10, align 4
  br label %102

58:                                               ; preds = %20
  %59 = load i16, ptr %13, align 2
  %60 = zext i16 %59 to i32
  %61 = load i32, ptr %8, align 4
  %62 = icmp ugt i32 %60, %61
  br i1 %62, label %63, label %65

63:                                               ; preds = %58
  %64 = load i32, ptr %12, align 4
  store i32 %64, ptr %11, align 4
  br label %101

65:                                               ; preds = %58
  %66 = load i16, ptr %13, align 2
  %67 = load ptr, ptr %9, align 8
  %68 = getelementptr inbounds %struct.BaseGlyphV1Record_, ptr %67, i32 0, i32 0
  store i16 %66, ptr %68, align 8
  %69 = load ptr, ptr %14, align 8
  %70 = getelementptr inbounds i8, ptr %69, i64 4
  store ptr %70, ptr %14, align 8
  %71 = load ptr, ptr %14, align 8
  %72 = getelementptr inbounds i8, ptr %71, i64 -4
  %73 = getelementptr inbounds i8, ptr %72, i64 0
  %74 = load i8, ptr %73, align 1
  %75 = zext i8 %74 to i32
  %76 = shl i32 %75, 24
  %77 = load ptr, ptr %14, align 8
  %78 = getelementptr inbounds i8, ptr %77, i64 -4
  %79 = getelementptr inbounds i8, ptr %78, i64 1
  %80 = load i8, ptr %79, align 1
  %81 = zext i8 %80 to i32
  %82 = shl i32 %81, 16
  %83 = or i32 %76, %82
  %84 = load ptr, ptr %14, align 8
  %85 = getelementptr inbounds i8, ptr %84, i64 -4
  %86 = getelementptr inbounds i8, ptr %85, i64 2
  %87 = load i8, ptr %86, align 1
  %88 = zext i8 %87 to i32
  %89 = shl i32 %88, 8
  %90 = or i32 %83, %89
  %91 = load ptr, ptr %14, align 8
  %92 = getelementptr inbounds i8, ptr %91, i64 -4
  %93 = getelementptr inbounds i8, ptr %92, i64 3
  %94 = load i8, ptr %93, align 1
  %95 = zext i8 %94 to i32
  %96 = shl i32 %95, 0
  %97 = or i32 %90, %96
  %98 = zext i32 %97 to i64
  %99 = load ptr, ptr %9, align 8
  %100 = getelementptr inbounds %struct.BaseGlyphV1Record_, ptr %99, i32 0, i32 1
  store i64 %98, ptr %100, align 8
  store i8 1, ptr %5, align 1
  br label %104

101:                                              ; preds = %63
  br label %102

102:                                              ; preds = %101, %55
  br label %16, !llvm.loop !118

103:                                              ; preds = %16
  store i8 0, ptr %5, align 1
  br label %104

104:                                              ; preds = %103, %65
  %105 = load i8, ptr %5, align 1
  ret i8 %105
}

; Function Attrs: nounwind uwtable
define internal zeroext i8 @tt_face_get_colr_glyph_paint(ptr noundef %0, i32 noundef %1, i32 noundef %2, ptr noundef %3) #0 {
  %5 = alloca i8, align 1
  %6 = alloca ptr, align 8
  %7 = alloca i32, align 4
  %8 = alloca i32, align 4
  %9 = alloca ptr, align 8
  %10 = alloca ptr, align 8
  %11 = alloca %struct.BaseGlyphV1Record_, align 8
  %12 = alloca ptr, align 8
  store ptr %0, ptr %6, align 8
  store i32 %1, ptr %7, align 4
  store i32 %2, ptr %8, align 4
  store ptr %3, ptr %9, align 8
  %13 = load ptr, ptr %6, align 8
  %14 = getelementptr inbounds %struct.TT_FaceRec_, ptr %13, i32 0, i32 82
  %15 = load ptr, ptr %14, align 8
  store ptr %15, ptr %10, align 8
  %16 = load ptr, ptr %10, align 8
  %17 = icmp ne ptr %16, null
  br i1 %17, label %18, label %23

18:                                               ; preds = %4
  %19 = load ptr, ptr %10, align 8
  %20 = getelementptr inbounds %struct.Colr_, ptr %19, i32 0, i32 13
  %21 = load ptr, ptr %20, align 8
  %22 = icmp ne ptr %21, null
  br i1 %22, label %24, label %23

23:                                               ; preds = %18, %4
  store i8 0, ptr %5, align 1
  br label %101

24:                                               ; preds = %18
  %25 = load ptr, ptr %10, align 8
  %26 = getelementptr inbounds %struct.Colr_, ptr %25, i32 0, i32 0
  %27 = load i16, ptr %26, align 8
  %28 = zext i16 %27 to i32
  %29 = icmp slt i32 %28, 1
  br i1 %29, label %40, label %30

30:                                               ; preds = %24
  %31 = load ptr, ptr %10, align 8
  %32 = getelementptr inbounds %struct.Colr_, ptr %31, i32 0, i32 5
  %33 = load i64, ptr %32, align 8
  %34 = icmp ne i64 %33, 0
  br i1 %34, label %35, label %40

35:                                               ; preds = %30
  %36 = load ptr, ptr %10, align 8
  %37 = getelementptr inbounds %struct.Colr_, ptr %36, i32 0, i32 6
  %38 = load ptr, ptr %37, align 8
  %39 = icmp ne ptr %38, null
  br i1 %39, label %41, label %40

40:                                               ; preds = %35, %30, %24
  store i8 0, ptr %5, align 1
  br label %101

41:                                               ; preds = %35
  %42 = load ptr, ptr %9, align 8
  %43 = getelementptr inbounds %struct.FT_Opaque_Paint_, ptr %42, i32 0, i32 0
  %44 = load ptr, ptr %43, align 8
  %45 = icmp ne ptr %44, null
  br i1 %45, label %46, label %47

46:                                               ; preds = %41
  store i8 0, ptr %5, align 1
  br label %101

47:                                               ; preds = %41
  %48 = load ptr, ptr %10, align 8
  %49 = getelementptr inbounds %struct.Colr_, ptr %48, i32 0, i32 6
  %50 = load ptr, ptr %49, align 8
  %51 = load ptr, ptr %10, align 8
  %52 = getelementptr inbounds %struct.Colr_, ptr %51, i32 0, i32 5
  %53 = load i64, ptr %52, align 8
  %54 = trunc i64 %53 to i32
  %55 = load i32, ptr %7, align 4
  %56 = call zeroext i8 @find_base_glyph_v1_record(ptr noundef %50, i32 noundef %54, i32 noundef %55, ptr noundef %11)
  %57 = icmp ne i8 %56, 0
  br i1 %57, label %59, label %58

58:                                               ; preds = %47
  store i8 0, ptr %5, align 1
  br label %101

59:                                               ; preds = %47
  %60 = getelementptr inbounds %struct.BaseGlyphV1Record_, ptr %11, i32 0, i32 1
  %61 = load i64, ptr %60, align 8
  %62 = icmp ne i64 %61, 0
  br i1 %62, label %63, label %70

63:                                               ; preds = %59
  %64 = getelementptr inbounds %struct.BaseGlyphV1Record_, ptr %11, i32 0, i32 1
  %65 = load i64, ptr %64, align 8
  %66 = load ptr, ptr %10, align 8
  %67 = getelementptr inbounds %struct.Colr_, ptr %66, i32 0, i32 14
  %68 = load i64, ptr %67, align 8
  %69 = icmp ugt i64 %65, %68
  br i1 %69, label %70, label %71

70:                                               ; preds = %63, %59
  store i8 0, ptr %5, align 1
  br label %101

71:                                               ; preds = %63
  %72 = load ptr, ptr %10, align 8
  %73 = getelementptr inbounds %struct.Colr_, ptr %72, i32 0, i32 6
  %74 = load ptr, ptr %73, align 8
  %75 = getelementptr inbounds %struct.BaseGlyphV1Record_, ptr %11, i32 0, i32 1
  %76 = load i64, ptr %75, align 8
  %77 = getelementptr inbounds i8, ptr %74, i64 %76
  store ptr %77, ptr %12, align 8
  %78 = load ptr, ptr %12, align 8
  %79 = load ptr, ptr %10, align 8
  %80 = getelementptr inbounds %struct.Colr_, ptr %79, i32 0, i32 13
  %81 = load ptr, ptr %80, align 8
  %82 = load ptr, ptr %10, align 8
  %83 = getelementptr inbounds %struct.Colr_, ptr %82, i32 0, i32 14
  %84 = load i64, ptr %83, align 8
  %85 = getelementptr inbounds i8, ptr %81, i64 %84
  %86 = icmp uge ptr %78, %85
  br i1 %86, label %87, label %88

87:                                               ; preds = %71
  store i8 0, ptr %5, align 1
  br label %101

88:                                               ; preds = %71
  %89 = load ptr, ptr %12, align 8
  %90 = load ptr, ptr %9, align 8
  %91 = getelementptr inbounds %struct.FT_Opaque_Paint_, ptr %90, i32 0, i32 0
  store ptr %89, ptr %91, align 8
  %92 = load i32, ptr %8, align 4
  %93 = icmp eq i32 %92, 0
  br i1 %93, label %94, label %97

94:                                               ; preds = %88
  %95 = load ptr, ptr %9, align 8
  %96 = getelementptr inbounds %struct.FT_Opaque_Paint_, ptr %95, i32 0, i32 1
  store i8 1, ptr %96, align 8
  br label %100

97:                                               ; preds = %88
  %98 = load ptr, ptr %9, align 8
  %99 = getelementptr inbounds %struct.FT_Opaque_Paint_, ptr %98, i32 0, i32 1
  store i8 0, ptr %99, align 8
  br label %100

100:                                              ; preds = %97, %94
  store i8 1, ptr %5, align 1
  br label %101

101:                                              ; preds = %100, %87, %70, %58, %46, %40, %23
  %102 = load i8, ptr %5, align 1
  ret i8 %102
}