; Function Attrs: nofree norecurse nosync nounwind memory(read, argmem: readwrite, inaccessiblemem: none) uwtable
define internal zeroext range(i8 0, 2) i8 @tt_face_get_colr_glyph_paint(ptr nocapture noundef readonly %0, i32 noundef %1, i32 noundef %2, ptr nocapture noundef %3) #3 {
  %5 = getelementptr inbounds i8, ptr %0, i64 1472
  %6 = load ptr, ptr %5, align 8
  %.not = icmp eq ptr %6, null
  br i1 %.not, label %find_base_glyph_v1_record.exit.thread, label %7

7:                                                ; preds = %4
  %8 = getelementptr inbounds i8, ptr %6, i64 128
  %9 = load ptr, ptr %8, align 8
  %.not26 = icmp eq ptr %9, null
  br i1 %.not26, label %find_base_glyph_v1_record.exit.thread, label %10

10:                                               ; preds = %7
  %11 = load i16, ptr %6, align 8
  %12 = icmp eq i16 %11, 0
  br i1 %12, label %find_base_glyph_v1_record.exit.thread, label %13

13:                                               ; preds = %10
  %14 = getelementptr inbounds i8, ptr %6, i64 24
  %15 = load i64, ptr %14, align 8
  %.not27 = icmp eq i64 %15, 0
  br i1 %.not27, label %find_base_glyph_v1_record.exit.thread, label %16

16:                                               ; preds = %13
  %17 = getelementptr inbounds i8, ptr %6, i64 32
  %18 = load ptr, ptr %17, align 8
  %.not28 = icmp eq ptr %18, null
  br i1 %.not28, label %find_base_glyph_v1_record.exit.thread, label %19

19:                                               ; preds = %16
  %20 = load ptr, ptr %3, align 8
  %.not29 = icmp eq ptr %20, null
  br i1 %.not29, label %21, label %find_base_glyph_v1_record.exit.thread

21:                                               ; preds = %19
  %22 = trunc i64 %15 to i32
  %.not.i = icmp eq i32 %22, 0
  br i1 %.not.i, label %find_base_glyph_v1_record.exit.thread, label %.lr.ph.i

.lr.ph.i:                                         ; preds = %21
  %23 = getelementptr inbounds i8, ptr %18, i64 4
  br label %24

24:                                               ; preds = %43, %.lr.ph.i
  %.02532.i = phi i32 [ 0, %.lr.ph.i ], [ %.1.i, %43 ]
  %.02631.i = phi i32 [ %22, %.lr.ph.i ], [ %.127.i, %43 ]
  %25 = sub i32 %.02631.i, %.02532.i
  %26 = lshr i32 %25, 1
  %27 = add i32 %26, %.02532.i
  %28 = mul i32 %27, 6
  %29 = zext i32 %28 to i64
  %30 = getelementptr inbounds i8, ptr %23, i64 %29
  %31 = load i8, ptr %30, align 1
  %32 = zext i8 %31 to i32
  %33 = shl nuw nsw i32 %32, 8
  %34 = getelementptr inbounds i8, ptr %30, i64 1
  %35 = load i8, ptr %34, align 1
  %36 = zext i8 %35 to i32
  %37 = or disjoint i32 %33, %36
  %38 = icmp ult i32 %37, %1
  br i1 %38, label %39, label %41

39:                                               ; preds = %24
  %40 = add i32 %27, 1
  br label %43

41:                                               ; preds = %24
  %42 = icmp ugt i32 %37, %1
  br i1 %42, label %43, label %45

43:                                               ; preds = %41, %39
  %.127.i = phi i32 [ %.02631.i, %39 ], [ %27, %41 ]
  %.1.i = phi i32 [ %40, %39 ], [ %.02532.i, %41 ]
  %44 = icmp ult i32 %.1.i, %.127.i
  br i1 %44, label %24, label %find_base_glyph_v1_record.exit.thread, !llvm.loop !78

45:                                               ; preds = %41
  %46 = getelementptr inbounds i8, ptr %30, i64 2
  %47 = load i8, ptr %46, align 1
  %48 = zext i8 %47 to i64
  %49 = shl nuw nsw i64 %48, 24
  %50 = getelementptr inbounds i8, ptr %30, i64 3
  %51 = load i8, ptr %50, align 1
  %52 = zext i8 %51 to i64
  %53 = shl nuw nsw i64 %52, 16
  %54 = or disjoint i64 %53, %49
  %55 = getelementptr inbounds i8, ptr %30, i64 4
  %56 = load i8, ptr %55, align 1
  %57 = zext i8 %56 to i64
  %58 = shl nuw nsw i64 %57, 8
  %59 = or disjoint i64 %54, %58
  %60 = getelementptr inbounds i8, ptr %30, i64 5
  %61 = load i8, ptr %60, align 1
  %62 = zext i8 %61 to i64
  %63 = or disjoint i64 %59, %62
  %.not31 = icmp eq i64 %63, 0
  br i1 %.not31, label %find_base_glyph_v1_record.exit.thread, label %64

64:                                               ; preds = %45
  %65 = getelementptr inbounds i8, ptr %6, i64 136
  %66 = load i64, ptr %65, align 8
  %67 = icmp ugt i64 %63, %66
  br i1 %67, label %find_base_glyph_v1_record.exit.thread, label %68

68:                                               ; preds = %64
  %69 = getelementptr inbounds i8, ptr %18, i64 %63
  %70 = getelementptr inbounds i8, ptr %9, i64 %66
  %.not32 = icmp ult ptr %69, %70
  br i1 %.not32, label %find_base_glyph_v1_record.exit.thread.sink.split, label %find_base_glyph_v1_record.exit.thread

find_base_glyph_v1_record.exit.thread.sink.split: ; preds = %68
  store ptr %69, ptr %3, align 8
  %71 = icmp eq i32 %2, 0
  %72 = getelementptr inbounds i8, ptr %3, i64 8
  %. = zext i1 %71 to i8
  store i8 %., ptr %72, align 8
  br label %find_base_glyph_v1_record.exit.thread

find_base_glyph_v1_record.exit.thread:            ; preds = %43, %find_base_glyph_v1_record.exit.thread.sink.split, %21, %68, %45, %64, %19, %10, %13, %16, %4, %7
  %.0 = phi i8 [ 0, %7 ], [ 0, %4 ], [ 0, %16 ], [ 0, %13 ], [ 0, %10 ], [ 0, %19 ], [ 0, %64 ], [ 0, %45 ], [ 0, %68 ], [ 0, %21 ], [ 1, %find_base_glyph_v1_record.exit.thread.sink.split ], [ 0, %43 ]
  ret i8 %.0
}